(lp0
(lp1
S'grass_2.png'
p2
aS'grass_0.png'
p3
ag3
aS'grass_4.png'
p4
aS'grass_3.png'
p5
ag5
ag5
ag5
aS'grass_1.png'
p6
ag4
aS'grass_5.png'
p7
ag6
aa(lp8
g5
ag5
ag7
ag6
ag4
ag3
ag5
ag4
ag4
ag2
ag7
ag4
aa(lp9
g2
ag5
aS'casa_3.png'
p10
aS'casa_4.png'
p11
aS'casa_5.png'
p12
ag6
ag3
ag4
ag6
ag5
ag3
ag2
aa(lp13
g6
ag3
aS'casa_0.png'
p14
aS'casa_1.png'
p15
aS'casa_2.png'
p16
ag4
ag3
ag6
ag6
ag2
ag2
ag7
aa(lp17
g2
ag6
ag3
ag2
ag4
ag5
ag2
ag2
ag6
ag2
ag4
ag7
aa(lp18
g5
aS'water_grass_topleft_1.png'
p19
aS'water_grass_top_1.png'
p20
aS'water_grass_topright_1.png'
p21
ag7
ag7
ag5
ag2
ag4
ag2
ag5
ag4
aa(lp22
g3
aS'water_grass_left_1.png'
p23
aS'water_mid_1.png'
p24
aS'water_grass_right_1.png'
p25
ag5
ag7
ag6
ag5
ag10
ag11
ag12
ag2
aa(lp26
g3
aS'water_grass_bottomleft_1.png'
p27
aS'water_grass_bottom_1.png'
p28
aS'water_grass_bottomright_1.png'
p29
ag6
ag2
ag7
ag2
ag14
ag15
ag16
ag4
aa(lp30
g5
ag5
ag2
ag5
ag7
ag7
ag2
ag3
ag4
ag3
ag7
ag4
aa(lp31
g3
ag3
ag6
ag7
ag5
ag5
ag2
ag2
ag2
ag7
ag3
ag3
aa.