(lp0
(lp1
S'grass_1.png'
p2
aS'grass_0.png'
p3
aS'grass_4.png'
p4
aS'grass_3.png'
p5
aS'grass_2.png'
p6
ag2
ag4
ag5
aS'casa_3.png'
p7
aS'casa_4.png'
p8
aS'casa_5.png'
p9
aa(lp10
g3
ag3
ag4
aS'grass_5.png'
p11
ag11
ag6
ag11
ag4
aS'casa_0.png'
p12
aS'casa_1.png'
p13
aS'casa_2.png'
p14
aa(lp15
g4
ag3
ag2
ag5
ag3
ag2
ag3
ag6
ag11
ag3
ag4
aa(lp16
g6
ag11
ag11
ag11
ag11
ag3
ag3
ag4
ag4
ag11
ag2
aa(lp17
g3
ag3
ag4
ag4
ag4
ag3
ag2
ag3
ag5
ag6
ag11
aa(lp18
g6
ag5
ag11
ag6
ag6
ag2
ag5
ag3
ag2
ag4
ag4
aa(lp19
g4
ag6
aS'water_grass_topleft_0.png'
p20
aS'water_grass_topright_0.png'
p21
ag5
ag5
ag5
ag5
aS'water_grass_topleft_1.png'
p22
aS'water_grass_top_1.png'
p23
aS'water_grass_topright_1.png'
p24
aa(lp25
g3
ag6
aS'water_grass_bottomleft_1.png'
p26
aS'water_grass_bottomright_0.png'
p27
ag3
ag3
ag11
ag5
aS'water_grass_left_1.png'
p28
aS'water_mid_1.png'
p29
aS'water_grass_right_1.png'
p30
aa(lp31
g5
ag3
ag5
ag4
ag3
ag6
ag4
ag4
ag26
aS'water_grass_bottom_0.png'
p32
aS'water_grass_bottomright_1.png'
p33
aa.