(lp0
(lp1
S'grass_1.png'
p2
aS'grass_0.png'
p3
aS'grass_4.png'
p4
aS'grass_3.png'
p5
aS'grass_2.png'
p6
ag2
ag4
ag5
aS'grass_5.png'
p7
ag5
ag3
aa(lp8
g3
ag3
ag4
ag7
ag7
ag6
ag7
ag4
ag2
ag3
ag2
aa(lp9
g4
ag3
ag2
ag5
ag3
ag2
ag3
ag6
ag7
ag3
ag4
aa(lp10
g6
ag7
ag7
ag7
ag7
ag3
ag3
ag4
ag4
ag7
ag2
aa(lp11
g3
ag3
ag4
ag4
ag4
ag3
ag2
ag3
ag5
ag6
ag7
aa(lp12
g6
ag5
ag7
ag6
ag6
ag2
ag5
ag3
ag2
ag4
ag4
aa(lp13
g4
ag6
aS'water_grass_topleft_0.png'
p14
aS'water_grass_topright_0.png'
p15
ag5
ag5
ag5
ag5
aS'water_grass_topleft_1.png'
p16
aS'water_grass_top_1.png'
p17
aS'water_grass_topright_1.png'
p18
aa(lp19
g3
ag6
aS'water_grass_bottomleft_1.png'
p20
aS'water_grass_bottomright_0.png'
p21
ag3
ag3
ag7
ag5
aS'water_grass_left_1.png'
p22
aS'water_mid_1.png'
p23
aS'water_grass_right_1.png'
p24
aa(lp25
g5
ag3
ag5
ag4
ag3
ag6
ag4
ag4
ag20
aS'water_grass_bottom_0.png'
p26
aS'water_grass_bottomright_1.png'
p27
aa.