(lp0
(lp1
S'grass_2.png'
p2
aS'grass_0.png'
p3
ag3
aS'grass_4.png'
p4
aS'grass_3.png'
p5
ag5
ag5
ag5
aS'grass_1.png'
p6
ag4
aS'grass_5.png'
p7
ag6
aa(lp8
g5
ag5
aS'grass_2.png'
p9
aS'grass_5.png'
p10
ag4
ag3
ag5
ag4
ag4
ag2
ag7
ag4
aa(lp11
g2
ag5
aS'grass_1.png'
p12
aS'grass_0.png'
p13
ag9
ag6
ag3
ag4
ag6
ag5
ag3
ag2
aa(lp14
g6
aS'grass_4.png'
p15
ag12
aS'grass_3.png'
p16
ag9
ag4
ag3
ag6
ag6
ag2
ag2
ag7
aa(lp17
g2
ag6
ag13
ag2
ag15
ag5
ag2
ag2
ag6
ag2
ag4
ag7
aa(lp18
g5
ag15
ag15
ag12
ag7
ag7
ag5
ag2
ag4
ag2
ag12
ag4
aa(lp19
g3
ag15
ag13
ag16
ag5
ag7
ag9
ag12
ag12
ag9
ag9
ag2
aa(lp20
g3
ag9
ag13
ag12
ag16
ag13
ag7
ag2
ag15
ag13
ag12
ag4
aa(lp21
g5
ag5
ag2
ag9
ag7
ag7
ag2
ag3
ag4
ag3
ag7
ag4
aa(lp22
g3
ag3
ag6
ag7
ag5
ag5
ag2
ag2
ag2
ag7
ag3
ag3
aa.