(lp0
(lp1
(lp2
S'BLUE'
p3
aa(lp4
g3
aa(lp5
g3
aa(lp6
g3
aa(lp7
g3
aa(lp8
g3
aa(lp9
g3
aa(lp10
g3
aa(lp11
g3
aa(lp12
g3
aa(lp13
g3
aa(lp14
g3
aa(lp15
g3
aa(lp16
g3
aa(lp17
g3
aa(lp18
g3
aa(lp19
g3
aa(lp20
g3
aa(lp21
g3
aa(lp22
g3
aa(lp23
g3
aa(lp24
g3
aa(lp25
g3
aa(lp26
g3
aa(lp27
g3
aa(lp28
g3
aa(lp29
g3
aa(lp30
g3
aa(lp31
g3
aa(lp32
g3
aa(lp33
g3
aa(lp34
g3
aa(lp35
g3
aa(lp36
g3
aa(lp37
g3
aa(lp38
g3
aa(lp39
g3
aa(lp40
g3
aa(lp41
g3
aa(lp42
g3
aa(lp43
g3
aa(lp44
g3
aa(lp45
g3
aa(lp46
g3
aa(lp47
g3
aaa(lp48
(lp49
g3
aaI0
aI0
aI0
aI0
aI0
aI0
aI0
aI0
aI0
aI0
aI0
aI0
aI0
aI0
aI0
aI0
aI0
aI0
aI0
aI0
aI0
aI0
aI0
aI0
aI0
aI0
a(lp50
S'FIRE'
p51
aaI0
aI0
aI0
aI0
aI0
aI0
aI0
aI0
aI0
aI0
aI0
aI0
aI0
aI0
aI0
aI0
a(lp52
g3
aaa(lp53
(lp54
g3
aaI0
aI0
aI0
aI0
aI0
aI0
aI0
aI0
aI0
aI0
aI0
aI0
aI0
aI0
aI0
aI0
aI0
aI0
aI0
aI0
aI0
aI0
aI0
aI0
aI0
aI0
a(lp55
g51
aaI0
aI0
aI0
aI0
aI0
aI0
aI0
aI0
aI0
aI0
aI0
aI0
aI0
aI0
aI0
aI0
a(lp56
g3
aaa(lp57
(lp58
g3
aaI0
aI0
aI0
aI0
aI0
aI0
aI0
aI0
aI0
aI0
aI0
aI0
aI0
aI0
aI0
aI0
aI0
aI0
aI0
aI0
aI0
aI0
aI0
aI0
aI0
aI0
a(lp59
g51
aaI0
aI0
aI0
aI0
aI0
aI0
aI0
aI0
aI0
aI0
aI0
aI0
aI0
aI0
aI0
aI0
a(lp60
g3
aaa(lp61
(lp62
g3
aaI0
aI0
aI0
aI0
aI0
aI0
aI0
aI0
aI0
aI0
aI0
aI0
aI0
aI0
aI0
aI0
aI0
aI0
aI0
aI0
aI0
aI0
aI0
aI0
aI0
aI0
aI0
aI0
aI0
aI0
aI0
aI0
aI0
aI0
aI0
aI0
aI0
aI0
aI0
aI0
aI0
aI0
aI0
a(lp63
g3
aaa(lp64
(lp65
g3
aaI0
aI0
aI0
aI0
aI0
aI0
aI0
aI0
aI0
aI0
aI0
aI0
aI0
aI0
aI0
aI0
aI0
aI0
aI0
aI0
aI0
aI0
aI0
aI0
aI0
aI0
aI0
aI0
aI0
aI0
aI0
aI0
a(lp66
g51
aa(lp67
g51
aa(lp68
g51
aa(lp69
g51
aa(lp70
g51
aa(lp71
g51
aa(lp72
g51
aa(lp73
g51
aaI0
aI0
aI0
a(lp74
g3
aaa(lp75
(lp76
g3
aaI0
aI0
aI0
aI0
aI0
aI0
aI0
aI0
aI0
aI0
a(lp77
g51
aaI0
aI0
aI0
aI0
aI0
aI0
a(lp78
g51
aa(lp79
g51
aa(lp80
g51
aa(lp81
g51
aa(lp82
g51
aa(lp83
g51
aa(lp84
g51
aa(lp85
g51
aa(lp86
g51
aaI0
aI0
aI0
aI0
aI0
aI0
aI0
aI0
aI0
aI0
aI0
aI0
aI0
aI0
aI0
aI0
aI0
a(lp87
g3
aaa(lp88
(lp89
g3
aaI0
aI0
aI0
aI0
aI0
aI0
aI0
aI0
aI0
aI0
a(lp90
g51
aaI0
aI0
aI0
aI0
aI0
aI0
aI0
aI0
aI0
aI0
aI0
aI0
aI0
aI0
a(lp91
g51
aaI0
aI0
aI0
aI0
aI0
aI0
aI0
aI0
aI0
aI0
aI0
aI0
aI0
aI0
aI0
aI0
aI0
a(lp92
g3
aaa(lp93
(lp94
g3
aaI0
aI0
aI0
aI0
aI0
aI0
aI0
aI0
aI0
aI0
a(lp95
g51
aaI0
aI0
aI0
aI0
aI0
aI0
aI0
aI0
aI0
aI0
aI0
aI0
aI0
aI0
a(lp96
g51
aa(lp97
I0
aaI0
aI0
aI0
aI0
aI0
aI0
aI0
aI0
aI0
aI0
aI0
aI0
aI0
aI0
aI0
aI0
a(lp98
g3
aaa(lp99
(lp100
g3
aaI0
a(lp101
g51
aa(lp102
g51
aa(lp103
g51
aa(lp104
g51
aa(lp105
g51
aa(lp106
g51
aa(lp107
g51
aa(lp108
g51
aa(lp109
g51
aa(lp110
g51
aaI0
aI0
aI0
aI0
aI0
aI0
aI0
aI0
aI0
aI0
aI0
aI0
aI0
aI0
a(lp111
g51
aa(lp112
I0
aaI0
aI0
aI0
aI0
aI0
aI0
aI0
aI0
aI0
aI0
aI0
aI0
a(lp113
g51
aaI0
aI0
aI0
a(lp114
g3
aaa(lp115
(lp116
g3
aaI0
aI0
aI0
aI0
aI0
aI0
aI0
aI0
aI0
aI0
aI0
aI0
aI0
aI0
aI0
aI0
aI0
aI0
aI0
aI0
aI0
aI0
aI0
aI0
aI0
a(lp117
g51
aa(lp118
I0
aaI0
aI0
aI0
aI0
aI0
aI0
aI0
aI0
aI0
aI0
aI0
aI0
a(lp119
g51
aaI0
aI0
aI0
a(lp120
g3
aaa(lp121
(lp122
g3
aaI0
aI0
aI0
aI0
aI0
aI0
aI0
aI0
aI0
aI0
aI0
aI0
aI0
aI0
aI0
aI0
aI0
aI0
aI0
aI0
aI0
aI0
aI0
aI0
aI0
a(lp123
g51
aa(lp124
I0
aaI0
aI0
aI0
aI0
aI0
aI0
aI0
aI0
aI0
aI0
aI0
aI0
a(lp125
g51
aaI0
aI0
aI0
a(lp126
g3
aaa(lp127
(lp128
g3
aaI0
aI0
aI0
aI0
aI0
aI0
aI0
aI0
aI0
aI0
aI0
aI0
aI0
aI0
aI0
aI0
aI0
aI0
aI0
aI0
aI0
aI0
aI0
aI0
aI0
a(lp129
g51
aa(lp130
I0
aaI0
aI0
aI0
aI0
aI0
aI0
aI0
aI0
aI0
aI0
aI0
aI0
a(lp131
g51
aaI0
aI0
aI0
a(lp132
g3
aaa(lp133
(lp134
g3
aaI0
aI0
aI0
aI0
aI0
aI0
aI0
aI0
aI0
aI0
aI0
aI0
aI0
aI0
a(lp135
g51
aaI0
aI0
aI0
aI0
aI0
aI0
aI0
aI0
aI0
aI0
a(lp136
g51
aa(lp137
I0
aaI0
aI0
aI0
aI0
aI0
aI0
aI0
aI0
aI0
aI0
aI0
aI0
a(lp138
g51
aaI0
aI0
aI0
a(lp139
g3
aaa(lp140
(lp141
g3
aaI0
aI0
aI0
aI0
aI0
aI0
aI0
aI0
aI0
aI0
aI0
aI0
aI0
aI0
a(lp142
g51
aaI0
aI0
aI0
aI0
aI0
aI0
aI0
aI0
aI0
aI0
a(lp143
g51
aa(lp144
I0
aaI0
aI0
aI0
aI0
aI0
aI0
aI0
aI0
aI0
aI0
aI0
aI0
a(lp145
g51
aaI0
aI0
aI0
a(lp146
g3
aaa(lp147
(lp148
g3
aaI0
aI0
aI0
aI0
aI0
aI0
aI0
aI0
aI0
aI0
aI0
aI0
aI0
aI0
a(lp149
g51
aaI0
aI0
aI0
aI0
aI0
aI0
aI0
aI0
aI0
aI0
a(lp150
g51
aaI0
aI0
aI0
aI0
aI0
aI0
aI0
aI0
aI0
aI0
aI0
aI0
aI0
a(lp151
g51
aaI0
aI0
aI0
a(lp152
g3
aaa(lp153
(lp154
g3
aaI0
aI0
aI0
aI0
aI0
aI0
aI0
aI0
aI0
aI0
aI0
aI0
aI0
aI0
a(lp155
g51
aaI0
aI0
aI0
aI0
aI0
aI0
aI0
aI0
aI0
aI0
aI0
aI0
aI0
aI0
aI0
aI0
aI0
aI0
aI0
aI0
aI0
aI0
aI0
aI0
a(lp156
g51
aaI0
aI0
aI0
a(lp157
g3
aaa(lp158
(lp159
g3
aaI0
aI0
aI0
aI0
aI0
aI0
aI0
aI0
aI0
aI0
aI0
aI0
aI0
aI0
a(lp160
g51
aaI0
aI0
aI0
aI0
aI0
aI0
aI0
aI0
aI0
aI0
aI0
aI0
aI0
aI0
aI0
aI0
aI0
aI0
aI0
aI0
a(lp161
g51
aaI0
aI0
aI0
aI0
aI0
aI0
aI0
a(lp162
g3
aaa(lp163
(lp164
g3
aaI0
aI0
aI0
aI0
aI0
aI0
aI0
aI0
aI0
aI0
aI0
aI0
aI0
aI0
a(lp165
g51
aaI0
aI0
aI0
aI0
aI0
aI0
aI0
aI0
aI0
aI0
aI0
aI0
aI0
aI0
aI0
aI0
aI0
aI0
aI0
aI0
a(lp166
g51
aaI0
aI0
aI0
aI0
aI0
aI0
aI0
a(lp167
g3
aaa(lp168
(lp169
g3
aa(lp170
g51
aa(lp171
g51
aa(lp172
g51
aa(lp173
g51
aa(lp174
g51
aa(lp175
g51
aa(lp176
g51
aa(lp177
g51
aaI0
aI0
aI0
aI0
aI0
aI0
aI0
aI0
aI0
aI0
aI0
aI0
aI0
aI0
aI0
aI0
aI0
aI0
aI0
aI0
aI0
aI0
aI0
aI0
aI0
aI0
aI0
a(lp178
g51
aaI0
aI0
aI0
aI0
aI0
aI0
aI0
a(lp179
g3
aaa(lp180
(lp181
g3
aaI0
aI0
aI0
aI0
aI0
aI0
aI0
aI0
aI0
aI0
aI0
aI0
aI0
aI0
aI0
aI0
a(lp182
I0
aa(lp183
I0
aa(lp184
I0
aa(lp185
I0
aa(lp186
I0
aa(lp187
I0
aa(lp188
I0
aa(lp189
I0
aa(lp190
I0
aaI0
aI0
aI0
aI0
aI0
aI0
aI0
aI0
aI0
aI0
a(lp191
g51
aaI0
aI0
aI0
aI0
aI0
aI0
aI0
a(lp192
g3
aaa(lp193
(lp194
g3
aaI0
aI0
aI0
aI0
aI0
aI0
aI0
aI0
aI0
aI0
aI0
aI0
aI0
a(lp195
g51
aa(lp196
g51
aa(lp197
g51
aa(lp198
g51
aa(lp199
g51
aa(lp200
g51
aa(lp201
g51
aa(lp202
g51
aa(lp203
g51
aa(lp204
g51
aa(lp205
g51
aa(lp206
g51
aaI0
aI0
aI0
aI0
aI0
aI0
aI0
aI0
aI0
aI0
a(lp207
g51
aaI0
aI0
aI0
aI0
aI0
aI0
aI0
a(lp208
g3
aaa(lp209
(lp210
g3
aaI0
aI0
aI0
aI0
aI0
aI0
aI0
aI0
aI0
aI0
aI0
aI0
aI0
aI0
aI0
aI0
aI0
aI0
aI0
aI0
aI0
aI0
aI0
aI0
aI0
aI0
aI0
aI0
aI0
aI0
aI0
aI0
aI0
aI0
aI0
a(lp211
g51
aaI0
aI0
aI0
aI0
aI0
aI0
aI0
a(lp212
g3
aaa(lp213
(lp214
g3
aaI0
aI0
aI0
aI0
aI0
aI0
aI0
aI0
aI0
aI0
aI0
aI0
aI0
aI0
aI0
aI0
aI0
aI0
aI0
aI0
aI0
aI0
aI0
aI0
aI0
aI0
aI0
aI0
aI0
aI0
aI0
aI0
aI0
aI0
aI0
a(lp215
g51
aaI0
aI0
aI0
aI0
aI0
aI0
aI0
a(lp216
g3
aaa(lp217
(lp218
g3
aaI0
aI0
aI0
aI0
aI0
aI0
aI0
a(lp219
g51
aaI0
aI0
aI0
aI0
aI0
aI0
aI0
aI0
aI0
aI0
aI0
aI0
aI0
aI0
aI0
aI0
aI0
aI0
aI0
aI0
aI0
aI0
aI0
aI0
aI0
aI0
aI0
a(lp220
g51
aaI0
aI0
aI0
aI0
aI0
aI0
aI0
a(lp221
g3
aaa(lp222
(lp223
g3
aaI0
aI0
aI0
aI0
aI0
aI0
aI0
a(lp224
g51
aaI0
aI0
aI0
aI0
aI0
aI0
aI0
aI0
aI0
aI0
aI0
aI0
aI0
aI0
aI0
aI0
aI0
aI0
aI0
aI0
aI0
aI0
aI0
a(lp225
g51
aa(lp226
g51
aa(lp227
g51
aa(lp228
g51
aa(lp229
g51
aaI0
aI0
aI0
aI0
aI0
aI0
aI0
a(lp230
g3
aaa(lp231
(lp232
g3
aaI0
aI0
aI0
aI0
aI0
aI0
aI0
a(lp233
g51
aaI0
aI0
aI0
aI0
aI0
aI0
aI0
aI0
aI0
aI0
aI0
aI0
aI0
aI0
aI0
aI0
aI0
aI0
aI0
aI0
aI0
aI0
aI0
aI0
aI0
aI0
aI0
aI0
aI0
aI0
aI0
aI0
aI0
aI0
aI0
a(lp234
g3
aaa(lp235
(lp236
g3
aaI0
aI0
aI0
aI0
aI0
aI0
aI0
a(lp237
g51
aaI0
aI0
aI0
aI0
aI0
aI0
aI0
aI0
aI0
aI0
aI0
aI0
aI0
aI0
aI0
aI0
aI0
aI0
aI0
aI0
aI0
aI0
aI0
aI0
aI0
aI0
aI0
aI0
aI0
aI0
aI0
aI0
aI0
aI0
aI0
a(lp238
g3
aaa(lp239
(lp240
g3
aaI0
aI0
aI0
aI0
aI0
aI0
aI0
a(lp241
g51
aaI0
aI0
aI0
aI0
aI0
aI0
aI0
aI0
aI0
aI0
aI0
aI0
aI0
aI0
aI0
aI0
aI0
aI0
aI0
aI0
aI0
aI0
aI0
aI0
aI0
aI0
aI0
aI0
aI0
aI0
aI0
aI0
aI0
aI0
aI0
a(lp242
g3
aaa(lp243
(lp244
g3
aa(lp245
g3
aa(lp246
g3
aa(lp247
g3
aa(lp248
g3
aa(lp249
g3
aa(lp250
g3
aa(lp251
g3
aa(lp252
g3
aa(lp253
g3
aa(lp254
g3
aa(lp255
g3
aa(lp256
g3
aa(lp257
g3
aa(lp258
g3
aa(lp259
g3
aa(lp260
g3
aa(lp261
g3
aa(lp262
g3
aa(lp263
g3
aa(lp264
g3
aa(lp265
g3
aa(lp266
g3
aa(lp267
g3
aa(lp268
g3
aa(lp269
g3
aa(lp270
g3
aa(lp271
g3
aa(lp272
g3
aa(lp273
g3
aa(lp274
g3
aa(lp275
g3
aa(lp276
g3
aa(lp277
g3
aa(lp278
g3
aa(lp279
g3
aa(lp280
g3
aa(lp281
g3
aa(lp282
g3
aa(lp283
g3
aa(lp284
g3
aa(lp285
g3
aa(lp286
g3
aa(lp287
g3
aa(lp288
g3
aaa.