(lp0
(lp1
S'grass_2.png'
p2
aS'grass_4.png'
p3
aS'grass_1.png'
p4
ag2
aS'grass_3.png'
p5
aS'grass_0.png'
p6
ag4
ag6
aS'grass_0.png'
p7
ag7
ag7
ag7
ag7
ag7
ag7
ag7
aS'grass_3.png'
p8
aS'grass_5.png'
p9
aS'dirt_path_single_vertical.png'
p10
ag3
aa(lp11
g2
aS'grass_2.png'
p12
aS'grass_0.png'
p13
ag12
ag12
ag12
aS'grass_4.png'
p14
aS'grass_1.png'
p15
ag2
ag5
ag9
ag7
ag3
ag2
ag3
ag3
ag7
ag2
ag10
ag6
aa(lp16
g6
ag2
aS'dirt_path_single_verticaltop.png'
p17
ag14
ag14
ag14
ag4
ag4
ag4
ag14
ag6
ag12
aS'grass_2.png'
p18
ag4
ag6
ag3
ag2
ag9
ag10
ag3
aa(lp19
g4
ag5
ag10
aS'grass_3.png'
p20
ag15
ag4
ag4
aS'grass_5.png'
p21
ag21
ag15
ag9
ag6
ag7
ag12
ag3
ag4
ag3
ag9
ag10
ag3
aa(lp22
g9
ag6
aS'dirt_path_left.png'
p23
aS'dirt_path_top.png'
p24
ag24
ag24
ag24
ag24
ag24
aS'dirt_path_topright.png'
p25
ag20
ag3
ag21
ag5
ag3
aS'dirt_path_topleft.png'
p26
ag24
ag24
aS'dirt_path_threeway_right.png'
p27
ag5
aa(lp28
g6
ag2
aS'dirt_path_bottomleft.png'
p29
aS'dirt_path_bottom.png'
p30
aS'dirt_path_bottom.png'
p31
ag30
ag31
ag31
ag23
aS'dirt_path_right.png'
p32
ag14
ag5
ag2
ag4
ag14
ag10
ag31
ag31
aS'dirt_path_bottomright.png'
p33
ag2
aa(lp34
g6
ag9
ag6
ag4
ag3
ag3
ag15
ag21
ag23
ag32
ag20
ag20
ag20
ag21
ag12
ag10
ag3
ag12
ag14
ag9
aa(lp35
g2
ag3
ag15
ag21
ag7
ag4
ag7
ag6
ag23
ag32
ag4
ag3
ag14
ag21
ag3
ag10
ag2
ag7
ag21
ag2
aa(lp36
g2
ag14
ag12
ag12
aS'grass_0.png'
p37
ag21
ag20
ag20
ag23
ag32
ag21
ag21
ag7
ag4
ag7
ag10
ag4
ag7
ag9
ag3
aa(lp38
g5
ag12
ag21
ag20
ag9
ag6
ag9
ag4
ag23
ag32
ag9
ag7
ag20
ag5
ag14
ag10
ag7
ag2
ag5
ag4
aa(lp39
g5
ag20
ag3
ag9
ag9
ag5
ag6
ag14
ag23
ag32
ag20
ag7
ag15
ag3
ag20
aS'dirt_path_threeway_left.png'
p40
ag24
ag24
ag25
ag6
aa(lp41
g9
ag21
ag20
ag20
ag6
ag6
ag15
ag4
ag23
ag32
ag12
ag15
ag20
ag2
ag15
aS'dirt_path_bottomleft.png'
p42
ag31
ag31
aS'dirt_path_curve_topleft.png'
p43
ag4
aa(lp44
g6
ag3
ag4
ag3
ag9
ag9
ag12
ag12
ag23
ag32
ag7
ag4
ag15
ag5
ag4
ag3
ag7
ag20
ag10
ag5
aa(lp45
g6
ag15
ag7
ag20
ag14
ag12
ag15
ag21
ag23
ag32
ag12
ag21
ag20
ag5
ag12
ag9
ag7
ag20
ag10
ag9
aa(lp46
g5
ag14
ag15
ag12
ag21
ag20
ag2
ag15
ag23
ag32
ag3
ag6
ag14
ag20
ag15
ag7
ag4
ag2
ag10
ag4
aa(lp47
g3
ag26
ag24
ag24
ag24
ag24
ag24
ag24
aS'dirt_path_mid.png'
p48
ag48
ag24
ag24
ag24
ag24
ag24
ag24
ag24
ag24
ag27
ag6
aa(lp49
g5
aS'dirt_path_curve_topright.png'
p50
ag31
ag31
ag30
ag31
ag31
ag31
ag31
ag31
ag31
ag31
ag30
ag30
ag30
ag31
ag31
ag31
ag33
ag5
aa(lp51
g4
ag10
ag12
ag12
ag20
ag20
ag3
ag9
ag4
ag5
ag2
ag2
ag7
ag21
ag2
ag3
ag4
ag12
ag20
ag3
aa(lp52
g3
ag10
ag20
ag14
ag7
ag14
ag21
ag20
ag21
ag7
ag21
ag15
ag7
ag15
ag20
ag21
ag20
ag20
ag20
ag2
aa(lp53
g5
ag10
ag6
ag6
ag5
ag3
ag9
ag6
ag2
ag5
ag9
ag5
ag3
ag9
ag3
ag2
ag6
ag6
ag4
ag6
aa.