(lp0
(lp1
S'tree_bottom_3.png'
p2
ag2
ag2
ag2
ag2
ag2
ag2
ag2
aS'grass_0.png'
p3
ag3
ag3
ag3
ag3
ag3
ag3
ag3
aS'grass_3.png'
p4
ag2
aS'dirt_path_single_vertical.png'
p5
ag2
aa(lp6
g2
aS'grass_2.png'
p7
aS'grass_0.png'
p8
ag7
ag7
ag7
aS'grass_4.png'
p9
aS'grass_1.png'
p10
aS'grass_3.png'
p11
ag2
ag2
ag3
ag2
ag7
ag2
ag2
ag3
ag2
ag5
ag2
aa(lp12
g2
ag2
aS'dirt_path_single_verticaltop.png'
p13
ag9
ag9
ag9
ag2
ag2
ag2
ag9
ag2
ag7
aS'grass_2.png'
p14
ag2
ag2
ag2
ag7
ag2
ag5
ag2
aa(lp15
g2
ag2
ag5
ag11
ag10
ag2
ag2
aS'grass_5.png'
p16
ag16
ag10
ag9
ag2
ag3
ag7
ag7
ag2
ag2
ag2
ag5
ag2
aa(lp17
g2
ag2
aS'dirt_path_left.png'
p18
aS'dirt_path_top.png'
p19
ag19
ag19
ag19
ag19
ag19
aS'dirt_path_topright.png'
p20
ag11
ag2
ag16
ag3
ag2
aS'dirt_path_topleft.png'
p21
ag19
ag19
aS'dirt_path_threeway_right.png'
p22
ag2
aa(lp23
g2
ag9
ag2
aS'dirt_path_bottom.png'
p24
ag24
ag2
ag24
ag24
ag18
aS'dirt_path_right.png'
p25
ag9
ag2
ag2
ag2
ag9
ag5
ag24
ag24
aS'dirt_path_bottomright.png'
p26
ag2
aa(lp27
g2
ag16
ag16
ag2
ag2
ag2
ag10
ag16
ag18
ag25
ag11
ag11
ag11
ag16
ag7
ag5
ag2
ag7
ag9
ag2
aa(lp28
g2
ag2
ag10
ag16
ag3
ag2
ag3
ag2
ag18
ag25
ag2
ag2
ag9
ag16
ag2
ag5
ag2
ag3
ag16
ag2
aa(lp29
g2
ag9
ag7
ag7
aS'grass_0.png'
p30
ag16
ag11
ag11
ag18
ag25
ag16
ag16
ag3
ag3
ag3
ag5
ag2
ag3
ag7
ag2
aa(lp31
g2
ag7
ag16
ag11
ag2
ag2
ag2
ag2
ag18
ag25
ag2
ag3
ag11
ag2
ag9
ag5
ag3
ag2
ag2
ag2
aa(lp32
g2
ag11
ag2
ag2
ag3
ag2
ag2
ag9
ag18
ag25
ag11
ag3
ag10
ag2
ag11
aS'dirt_path_threeway_left.png'
p33
ag19
ag19
ag20
ag2
aa(lp34
g2
ag16
ag11
ag11
ag7
ag2
ag10
ag2
ag18
ag25
ag7
ag10
ag11
ag2
ag10
aS'dirt_path_bottomleft.png'
p35
ag24
ag24
aS'dirt_path_curve_topleft.png'
p36
ag2
aa(lp37
g2
ag2
ag2
ag2
ag2
ag2
ag7
ag7
ag18
ag25
ag3
ag2
ag10
ag2
ag2
ag2
ag3
ag11
ag5
ag2
aa(lp38
g2
ag10
ag3
ag11
ag9
ag7
ag10
ag16
ag18
ag25
ag7
ag16
ag11
ag2
ag7
ag2
ag3
ag11
ag5
ag2
aa(lp39
g2
ag9
ag10
ag7
ag16
ag11
ag2
ag10
ag18
ag25
ag2
ag2
ag9
ag11
ag10
ag3
ag2
ag2
ag5
ag2
aa(lp40
g2
ag21
ag19
ag19
ag19
ag19
ag19
ag19
aS'dirt_path_mid.png'
p41
ag41
ag19
ag19
ag19
ag19
ag19
ag19
ag19
ag19
ag22
ag2
aa(lp42
g2
aS'dirt_path_curve_topright.png'
p43
ag24
ag24
ag2
ag24
ag24
ag24
ag24
ag24
ag24
ag24
ag2
ag2
ag2
ag24
ag24
ag24
ag26
ag2
aa(lp44
g2
ag5
ag7
ag7
ag11
ag11
ag2
ag10
ag2
ag2
ag2
ag11
ag3
ag16
ag2
ag3
ag2
ag7
ag11
ag2
aa(lp45
g2
ag5
ag11
ag9
ag3
ag9
ag16
ag11
ag16
ag3
ag16
ag10
ag3
ag10
ag11
ag16
ag11
ag11
ag11
ag2
aa(lp46
g2
ag5
ag2
ag2
ag2
ag2
ag2
ag2
ag2
ag2
ag2
ag2
ag2
ag2
ag2
ag2
ag2
ag2
ag2
ag2
aa.