(lp0
(lp1
S'boulder_curve_topleft.png'
p2
aS'boulder_bottom.png'
p3
ag3
ag3
ag3
ag3
ag3
ag3
ag3
ag3
ag3
ag3
ag3
ag3
ag3
ag3
ag3
aS'boulder_curve_topright.png'
p4
aa(lp5
S'boulder_right.png'
p6
aS'ground.png'
p7
ag7
ag7
ag7
ag7
ag7
ag7
ag7
ag7
ag7
ag7
ag7
ag7
ag7
ag7
ag7
aS'boulder_left.png'
p8
aa(lp9
g6
ag7
ag7
ag7
ag7
ag7
ag7
ag7
ag7
ag7
ag7
ag7
ag7
ag7
ag7
ag7
ag7
ag8
aa(lp10
g6
ag7
aS'rock.png'
p11
ag7
ag7
ag7
ag7
ag11
ag7
ag7
ag7
ag7
ag7
ag11
ag7
ag7
ag7
ag8
aa(lp12
g6
ag7
ag7
ag7
ag7
ag7
ag7
ag7
ag7
aS'ground.png'
p13
aS'boulder_topleft.png'
p14
aS'boulder_topright.png'
p15
ag7
ag7
ag7
ag7
ag7
ag8
aa(lp16
g6
ag7
ag7
ag7
ag11
ag7
ag7
ag7
ag7
ag13
ag8
ag6
ag7
ag7
ag14
ag15
ag7
ag8
aa(lp17
g6
ag7
ag7
ag7
ag7
ag7
ag14
aS'boulder_top.png'
p18
ag18
ag18
aS'boulder_curve_bottomright.png'
p19
ag6
ag7
ag7
aS'boulder_bottomleft.png'
p20
aS'boulder_bottomright.png'
p21
ag13
ag8
aa(lp22
g6
ag7
ag7
ag7
ag7
ag7
ag8
aS'boulder_mid.png'
p23
ag23
ag23
ag23
ag6
ag7
ag7
ag7
ag11
ag13
ag8
aa(lp24
g6
ag7
ag7
ag7
ag7
ag7
ag8
ag23
ag23
ag23
ag23
ag6
ag7
ag7
ag7
ag13
ag7
ag8
aa(lp25
g6
ag7
ag11
ag7
ag7
ag7
ag20
ag3
ag3
ag3
ag3
ag21
ag7
ag11
ag7
ag13
ag13
ag8
aa(lp26
g6
ag7
ag7
ag7
ag7
ag7
ag7
ag7
ag7
ag7
ag7
ag7
ag7
ag7
ag7
ag13
ag13
ag8
aa(lp27
g6
ag7
ag7
ag7
ag7
ag7
ag7
ag13
ag13
ag11
ag13
ag7
ag7
ag7
ag7
ag13
ag13
ag8
aa(lp28
g6
ag7
ag13
ag13
ag11
ag13
ag14
ag18
ag15
ag13
ag7
ag7
ag7
ag7
ag11
ag13
ag13
ag8
aa(lp29
g6
ag13
ag13
ag13
ag13
ag13
ag20
ag3
ag21
ag13
ag13
ag13
ag13
ag13
ag11
ag13
ag13
ag8
aa(lp30
g6
ag13
ag13
ag13
ag13
ag13
ag13
ag13
ag13
ag13
ag7
ag13
ag13
ag11
ag13
ag13
ag7
ag8
aa(lp31
S'boulder_curve_bottomleft.png'
p32
ag18
ag15
ag13
ag14
ag18
ag18
ag18
ag18
ag18
ag18
ag18
ag18
ag18
ag18
ag18
ag18
ag19
aa.