(lp0
(lp1
S'grass_0.png'
p2
aS'grass_4.png'
p3
ag2
aS'water_mid_0.png'
p4
ag4
aS'grass_3.png'
p5
aS'grass_1.png'
p6
aa(lp7
g5
ag2
ag3
ag4
ag4
ag6
aS'grass_2.png'
p8
aa(lp9
g2
ag8
aS'test_tile.png'
p10
ag2
ag8
ag6
aS'grass_5.png'
p11
aa(lp12
g3
ag5
ag11
ag10
aS'casa_3.png'
p13
aS'casa_4.png'
p14
aS'casa_5.png'
p15
aa(lp16
g2
ag11
ag10
ag3
aS'casa_0.png'
p17
aS'casa_1.png'
p18
aS'casa_2.png'
p19
aa.